target datalayout = "e-m:e-p270:32:32-p271:32:32-p272:64:64-i64:64-i128:128-f80:128-n8:16:32:64-S128"
target triple = "x86_64-unknown-linux-gnu"

@_ZTIN7datalog10table_baseE = external constant ptr
@_ZTIN7datalog12sparse_tableE = hidden constant { ptr, ptr, ptr } { ptr getelementptr inbounds (ptr, ptr @_ZTVN10__cxxabiv120__si_class_type_infoE, i64 2), ptr @_ZTSN7datalog12sparse_tableE, ptr @_ZTIN7datalog10table_baseE }, align 8

; Function Attrs: mustprogress uwtable
define hidden noundef nonnull align 8 dereferenceable(184) ptr @_ZN7datalog19sparse_table_plugin3getERKNS_10table_baseE(ptr noundef nonnull align 8 dereferenceable(36) %t) #4 align 2 {
entry:
  %t.addr = alloca ptr, align 8
  store ptr %t, ptr %t.addr, align 8
  %0 = load ptr, ptr %t.addr, align 8
  %1 = call ptr @__dynamic_cast(ptr %0, ptr @_ZTIN7datalog10table_baseE, ptr @_ZTIN7datalog12sparse_tableE, i64 0) #3
  %2 = icmp eq ptr %1, null
  br i1 %2, label %dynamic_cast.bad_cast, label %dynamic_cast.end

dynamic_cast.bad_cast:                            ; preds = %entry
  call void @__cxa_bad_cast() #16
  unreachable

dynamic_cast.end:                                 ; preds = %entry
  ret ptr %1
}